target datalayout = "e-m:e-p270:32:32-p271:32:32-p272:64:64-i64:64-i128:128-f80:128-n8:16:32:64-S128"
target triple = "x86_64-pc-linux-gnu"

%struct._GstMiniObject = type { i64, i32, i32, i32, ptr, ptr, ptr, i32, ptr }
%struct._GstPadProbeInfo = type { i32, i64, ptr, i64, i32, %union.anon.67 }
%union.anon.67 = type { [4 x ptr] }
%struct._GstQuery = type { %struct._GstMiniObject, i32 }

; Function Attrs: mustprogress uwtable
define internal noundef i32 @_ZN2cv4gapi3wip3gst12_GLOBAL__N_120appsinkQueryCallbackEP7_GstPadP16_GstPadProbeInfoPv(ptr noundef %0, ptr noundef %1, ptr noundef %2) #4 {
  %4 = alloca i32, align 4
  %5 = alloca ptr, align 8
  %6 = alloca ptr, align 8
  %7 = alloca ptr, align 8
  %8 = alloca ptr, align 8
  %9 = alloca i32, align 4
  store ptr %0, ptr %5, align 8, !tbaa !152
  store ptr %1, ptr %6, align 8, !tbaa !156
  store ptr %2, ptr %7, align 8, !tbaa !74
  call void @llvm.lifetime.start.p0(i64 8, ptr %8) #3
  %10 = load ptr, ptr %6, align 8, !tbaa !156
  %11 = getelementptr inbounds nuw %struct._GstPadProbeInfo, ptr %10, i32 0, i32 2
  %12 = load ptr, ptr %11, align 8, !tbaa !158
  store ptr %12, ptr %8, align 8, !tbaa !161
  %13 = load ptr, ptr %8, align 8, !tbaa !161
  %14 = getelementptr inbounds nuw %struct._GstQuery, ptr %13, i32 0, i32 1
  %15 = load i32, ptr %14, align 8, !tbaa !163
  %16 = icmp ne i32 %15, 35846
  br i1 %16, label %17, label %18

17:                                               ; preds = %3
  store i32 1, ptr %4, align 4
  store i32 1, ptr %9, align 4
  br label %21

18:                                               ; preds = %3
  %19 = load ptr, ptr %8, align 8, !tbaa !161
  %20 = call i64 @gst_video_meta_api_get_type()
  call void @gst_query_add_allocation_meta(ptr noundef %19, i64 noundef %20, ptr noundef null)
  store i32 4, ptr %4, align 4
  store i32 1, ptr %9, align 4
  br label %21

21:                                               ; preds = %18, %17
  call void @llvm.lifetime.end.p0(i64 8, ptr %8) #3
  %22 = load i32, ptr %4, align 4
  ret i32 %22
}