; Function Attrs: mustprogress uwtable
define internal noundef range(i32 1, 5) i32 @_ZN2cv4gapi3wip3gst12_GLOBAL__N_120appsinkQueryCallbackEP7_GstPadP16_GstPadProbeInfoPv(ptr readnone captures(none) %0, ptr noundef readonly captures(none) %1, ptr readnone captures(none) %2) #3 {
  %4 = getelementptr inbounds nuw i8, ptr %1, i64 16
  %5 = load ptr, ptr %4, align 8, !tbaa !138
  %6 = getelementptr inbounds nuw i8, ptr %5, i64 64
  %7 = load i32, ptr %6, align 8, !tbaa !141
  %.not = icmp eq i32 %7, 35846
  br i1 %.not, label %8, label %10

8:                                                ; preds = %3
  %9 = tail call i64 @gst_video_meta_api_get_type()
  tail call void @gst_query_add_allocation_meta(ptr noundef nonnull %5, i64 noundef %9, ptr noundef null)
  br label %10

10:                                               ; preds = %3, %8
  %.0 = phi i32 [ 4, %8 ], [ 1, %3 ]
  ret i32 %.0
}